(dp1
S'session'
p2
(dp3
S'access_token'
p4
S'9ecdf72c1694ca1851b49c67a453775b94e52bcf'
p5
sS'state'
p6
S'zfnjecvvtsptzpgcjtekmefeadnzykrnakaxnvvrbcictagfee'
p7
sS'_accessed_time'
p8
F1447850324.2158129
sS'_creation_time'
p9
F1447850300.4560621
ss.