(dp1
S'session'
p2
(dp3
S'access_token'
p4
S'fc7b4bbf72b96b77cc856a77f6e02ff96f23be10'
p5
sS'state'
p6
S'ostpxnmlkkyujwpkndppxhpvpemydnxfgtvfbxczaucywagxkz'
p7
sS'_accessed_time'
p8
F1446840249.0451419
sS'_creation_time'
p9
F1446840150.0971279
ss.