(dp1
S'session'
p2
(dp3
S'access_token'
p4
S'991d20c40aa490f919ba30db6a57315a3362f935'
p5
sS'state'
p6
S'wjqszvhwcjqkfnvwiaqnryffssuxchlqbubwpqrjjjopxauktr'
p7
sS'_accessed_time'
p8
F1447078044.461077
sS'_creation_time'
p9
F1447078037.1121321
ss.