(dp1
S'session'
p2
(dp3
S'access_token'
p4
S'fc7b4bbf72b96b77cc856a77f6e02ff96f23be10'
p5
sS'state'
p6
S'iwpzmgtxqqochewnqaqvkenocvkgbvhxyiqmnxzjumvyypftzp'
p7
sS'_accessed_time'
p8
F1447835617.16258
sS'_creation_time'
p9
F1447835366.946105
ss.